; ModuleID = 'source-C-CXX/9/377.c'
source_filename = "source-C-CXX/9/377.c"
target datalayout = "e-m:e-p270:32:32-p271:32:32-p272:64:64-i64:64-f80:128-n8:16:32:64-S128"
target triple = "x86_64-pc-linux-gnu"

@.str = private unnamed_addr constant [3 x i8] c"%d\00", align 1

; Function Attrs: nofree nounwind sspstrong uwtable
define dso_local void @main() local_unnamed_addr #0 {
  %1 = alloca i32, align 4
  %2 = alloca [25 x i32], align 16
  %3 = bitcast i32* %1 to i8*
  call void @llvm.lifetime.start.p0i8(i64 4, i8* nonnull %3) #4
  %4 = bitcast [25 x i32]* %2 to i8*
  call void @llvm.lifetime.start.p0i8(i64 100, i8* nonnull %4) #4
  %5 = call i32 (i8*, ...) @__isoc99_scanf(i8* getelementptr inbounds ([3 x i8], [3 x i8]* @.str, i64 0, i64 0), i32* nonnull %1)
  %6 = load i32, i32* %1, align 4, !tbaa !5
  %7 = icmp sgt i32 %6, 0
  br i1 %7, label %12, label %8

8:                                                ; preds = %12, %0
  %9 = phi i32 [ %6, %0 ], [ %17, %12 ]
  %10 = getelementptr inbounds [25 x i32], [25 x i32]* %2, i64 0, i64 0
  %11 = icmp slt i32 %9, 0
  br i1 %11, label %28, label %20

12:                                               ; preds = %0, %12
  %13 = phi i64 [ %16, %12 ], [ 0, %0 ]
  %14 = getelementptr inbounds [25 x i32], [25 x i32]* %2, i64 0, i64 %13
  %15 = call i32 (i8*, ...) @__isoc99_scanf(i8* getelementptr inbounds ([3 x i8], [3 x i8]* @.str, i64 0, i64 0), i32* nonnull %14)
  %16 = add nuw nsw i64 %13, 1
  %17 = load i32, i32* %1, align 4, !tbaa !5
  %18 = sext i32 %17 to i64
  %19 = icmp slt i64 %16, %18
  br i1 %19, label %12, label %8, !llvm.loop !9

20:                                               ; preds = %8, %20
  %21 = phi i32 [ %25, %20 ], [ 0, %8 ]
  %22 = phi i32 [ %26, %20 ], [ 0, %8 ]
  %23 = call i32 @num(i32* nonnull %10, i32 %22, i32 %9)
  %24 = icmp sgt i32 %23, %21
  %25 = select i1 %24, i32 %23, i32 %21
  %26 = add nuw i32 %22, 1
  %27 = icmp eq i32 %22, %9
  br i1 %27, label %28, label %20, !llvm.loop !11

28:                                               ; preds = %20, %8
  %29 = phi i32 [ 0, %8 ], [ %25, %20 ]
  %30 = call i32 (i8*, ...) @printf(i8* nonnull dereferenceable(1) getelementptr inbounds ([3 x i8], [3 x i8]* @.str, i64 0, i64 0), i32 %29)
  call void @llvm.lifetime.end.p0i8(i64 100, i8* nonnull %4) #4
  call void @llvm.lifetime.end.p0i8(i64 4, i8* nonnull %3) #4
  ret void
}

; Function Attrs: argmemonly mustprogress nofree nosync nounwind willreturn
declare void @llvm.lifetime.start.p0i8(i64 immarg, i8* nocapture) #1

; Function Attrs: nofree nounwind
declare noundef i32 @__isoc99_scanf(i8* nocapture noundef readonly, ...) local_unnamed_addr #2

; Function Attrs: nofree nosync nounwind readonly sspstrong uwtable
define dso_local i32 @num(i32* nocapture %0, i32 %1, i32 %2) local_unnamed_addr #3 {
  %4 = icmp eq i32 %1, %2
  br i1 %4, label %30, label %5

5:                                                ; preds = %3
  %6 = icmp slt i32 %1, %2
  br i1 %6, label %7, label %27

7:                                                ; preds = %5
  %8 = sext i32 %1 to i64
  %9 = getelementptr inbounds i32, i32* %0, i64 %8
  %10 = load i32, i32* %9, align 4, !tbaa !5
  %11 = sext i32 %2 to i64
  br label %12

12:                                               ; preds = %7, %24
  %13 = phi i64 [ %8, %7 ], [ %15, %24 ]
  %14 = phi i32 [ 0, %7 ], [ %25, %24 ]
  %15 = add nsw i64 %13, 1
  %16 = getelementptr inbounds i32, i32* %0, i64 %15
  %17 = load i32, i32* %16, align 4, !tbaa !5
  %18 = icmp sgt i32 %17, %10
  br i1 %18, label %24, label %19

19:                                               ; preds = %12
  %20 = trunc i64 %15 to i32
  %21 = tail call i32 @num(i32* nonnull %0, i32 %20, i32 %2)
  %22 = icmp sgt i32 %21, %14
  %23 = select i1 %22, i32 %21, i32 %14
  br label %24

24:                                               ; preds = %19, %12
  %25 = phi i32 [ %14, %12 ], [ %23, %19 ]
  %26 = icmp eq i64 %15, %11
  br i1 %26, label %27, label %12, !llvm.loop !12

27:                                               ; preds = %24, %5
  %28 = phi i32 [ 0, %5 ], [ %25, %24 ]
  %29 = add nsw i32 %28, 1
  br label %30

30:                                               ; preds = %3, %27
  %31 = phi i32 [ %29, %27 ], [ 0, %3 ]
  ret i32 %31
}

; Function Attrs: nofree nounwind
declare noundef i32 @printf(i8* nocapture noundef readonly, ...) local_unnamed_addr #2

; Function Attrs: argmemonly mustprogress nofree nosync nounwind willreturn
declare void @llvm.lifetime.end.p0i8(i64 immarg, i8* nocapture) #1


!llvm.module.flags = !{!0, !1, !2, !3}
!llvm.ident = !{!4}

!0 = !{i32 1, !"wchar_size", i32 4}
!1 = !{i32 7, !"PIC Level", i32 2}
!2 = !{i32 7, !"PIE Level", i32 2}
!3 = !{i32 7, !"uwtable", i32 1}
!4 = !{!"clang version 13.0.0"}
!5 = !{!6, !6, i64 0}
!6 = !{!"int", !7, i64 0}
!7 = !{!"omnipotent char", !8, i64 0}
!8 = !{!"Simple C/C++ TBAA"}
!9 = distinct !{!9, !10}
!10 = !{!"llvm.loop.mustprogress"}
!11 = distinct !{!11, !10}
!12 = distinct !{!12, !10}
